; Function Attrs: alwaysinline norecurse nounwind uwtable
define internal void @_ZNK4ncnn3Log15forward_inplaceERNS_3MatERKNS_6OptionE.omp_outlined.1(ptr noalias noundef readonly captures(none) %0, ptr noalias readnone captures(none) %1, ptr noundef nonnull readonly align 4 captures(none) dereferenceable(4) %2, ptr noundef nonnull readonly align 8 captures(none) dereferenceable(72) %3, ptr noundef nonnull readonly align 4 captures(none) dereferenceable(4) %4, ptr noundef readonly captures(none) %5, ptr noundef nonnull readonly align 4 captures(none) dereferenceable(4) %6) #6 personality ptr @__gxx_personality_v0 {
  %8 = alloca i32, align 4
  %9 = alloca i32, align 4
  %10 = alloca i32, align 4
  %11 = alloca i32, align 4
  %12 = load i32, ptr %2, align 4, !tbaa !34
  %13 = icmp sgt i32 %12, 0
  br i1 %13, label %14, label %42

14:                                               ; preds = %7
  %15 = add nsw i32 %12, -1
  call void @llvm.lifetime.start.p0(i64 4, ptr nonnull %8) #7
  store i32 0, ptr %8, align 4, !tbaa !34
  call void @llvm.lifetime.start.p0(i64 4, ptr nonnull %9) #7
  store i32 %15, ptr %9, align 4, !tbaa !34
  call void @llvm.lifetime.start.p0(i64 4, ptr nonnull %10) #7
  store i32 1, ptr %10, align 4, !tbaa !34
  call void @llvm.lifetime.start.p0(i64 4, ptr nonnull %11) #7
  store i32 0, ptr %11, align 4, !tbaa !34
  %16 = load i32, ptr %0, align 4, !tbaa !34
  call void @__kmpc_for_static_init_4(ptr nonnull @1, i32 %16, i32 34, ptr nonnull %11, ptr nonnull %8, ptr nonnull %9, ptr nonnull %10, i32 1, i32 1)
  %17 = load i32, ptr %9, align 4, !tbaa !34
  %18 = call i32 @llvm.smin.i32(i32 %17, i32 %15)
  store i32 %18, ptr %9, align 4, !tbaa !34
  %19 = load i32, ptr %8, align 4, !tbaa !34
  %.not31 = icmp sgt i32 %19, %18
  br i1 %.not31, label %._crit_edge33, label %.noexc.lr.ph

.noexc.lr.ph:                                     ; preds = %14
  %20 = load ptr, ptr %3, align 8, !tbaa !42, !noalias !52
  %21 = getelementptr inbounds nuw i8, ptr %3, i64 64
  %22 = load i64, ptr %21, align 8, !tbaa !46, !noalias !52
  %23 = getelementptr inbounds nuw i8, ptr %3, i64 16
  %24 = load i64, ptr %23, align 8, !tbaa !47, !noalias !52
  %factor.op.mul = mul i64 %22, %24
  %25 = load i32, ptr %4, align 4, !tbaa !34
  %26 = icmp sgt i32 %25, 0
  %27 = getelementptr inbounds nuw i8, ptr %5, i64 216
  %28 = getelementptr inbounds nuw i8, ptr %5, i64 212
  br i1 %26, label %.noexc.us.preheader, label %._crit_edge33

.noexc.us.preheader:                              ; preds = %.noexc.lr.ph
  %29 = sext i32 %19 to i64
  %30 = add nsw i32 %18, 1
  %wide.trip.count = zext nneg i32 %25 to i64
  br label %.noexc.us

.noexc.us:                                        ; preds = %.noexc.us.preheader, %._crit_edge.us
  %indvars.iv36 = phi i64 [ %29, %.noexc.us.preheader ], [ %indvars.iv.next37, %._crit_edge.us ]
  %.reass.us = mul i64 %factor.op.mul, %indvars.iv36
  %31 = getelementptr inbounds nuw i8, ptr %20, i64 %.reass.us
  br label %32

32:                                               ; preds = %.noexc.us, %32
  %indvars.iv = phi i64 [ 0, %.noexc.us ], [ %indvars.iv.next, %32 ]
  %33 = load float, ptr %27, align 8, !tbaa !28
  %34 = getelementptr inbounds nuw float, ptr %31, i64 %indvars.iv
  %35 = load float, ptr %34, align 4, !tbaa !37
  %36 = load float, ptr %28, align 4, !tbaa !27
  %37 = fmul fast float %36, %35
  %38 = fadd fast float %37, %33
  %39 = call fast float @llvm.log.f32(float %38)
  %40 = load float, ptr %6, align 4, !tbaa !37
  %41 = fmul fast float %39, %40
  store float %41, ptr %34, align 4, !tbaa !37
  %indvars.iv.next = add nuw nsw i64 %indvars.iv, 1
  %exitcond.not = icmp eq i64 %indvars.iv.next, %wide.trip.count
  br i1 %exitcond.not, label %._crit_edge.us, label %32, !llvm.loop !55

._crit_edge.us:                                   ; preds = %32
  %indvars.iv.next37 = add nsw i64 %indvars.iv36, 1
  %lftr.wideiv = trunc i64 %indvars.iv.next37 to i32
  %exitcond39.not = icmp eq i32 %30, %lftr.wideiv
  br i1 %exitcond39.not, label %._crit_edge33, label %.noexc.us

._crit_edge33:                                    ; preds = %._crit_edge.us, %.noexc.lr.ph, %14
  call void @__kmpc_for_static_fini(ptr nonnull @1, i32 %16)
  call void @llvm.lifetime.end.p0(i64 4, ptr nonnull %11) #7
  call void @llvm.lifetime.end.p0(i64 4, ptr nonnull %10) #7
  call void @llvm.lifetime.end.p0(i64 4, ptr nonnull %9) #7
  call void @llvm.lifetime.end.p0(i64 4, ptr nonnull %8) #7
  br label %42

42:                                               ; preds = %._crit_edge33, %7
  ret void
}